target datalayout = "e-m:e-p270:32:32-p271:32:32-p272:64:64-i64:64-i128:128-f80:128-n8:16:32:64-S128"
target triple = "x86_64-pc-linux-gnu"

; Function Attrs: nounwind uwtable
define internal void @gray8aToPacked32(ptr noundef %0, ptr noundef %1, i32 noundef %2, ptr noundef %3) #0 {
  %5 = alloca ptr, align 8
  %6 = alloca ptr, align 8
  %7 = alloca i32, align 4
  %8 = alloca ptr, align 8
  %9 = alloca i32, align 4
  store ptr %0, ptr %5, align 8, !tbaa !4
  store ptr %1, ptr %6, align 8, !tbaa !4
  store i32 %2, ptr %7, align 4, !tbaa !9
  store ptr %3, ptr %8, align 8, !tbaa !4
  call void @llvm.lifetime.start.p0(i64 4, ptr %9) #11
  store i32 0, ptr %9, align 4, !tbaa !9
  br label %10

10:                                               ; preds = %39, %4
  %11 = load i32, ptr %9, align 4, !tbaa !9
  %12 = load i32, ptr %7, align 4, !tbaa !9
  %13 = icmp slt i32 %11, %12
  br i1 %13, label %14, label %42

14:                                               ; preds = %10
  %15 = load ptr, ptr %8, align 8, !tbaa !4
  %16 = load ptr, ptr %5, align 8, !tbaa !4
  %17 = load i32, ptr %9, align 4, !tbaa !9
  %18 = shl i32 %17, 1
  %19 = sext i32 %18 to i64
  %20 = getelementptr inbounds i8, ptr %16, i64 %19
  %21 = load i8, ptr %20, align 1, !tbaa !67
  %22 = zext i8 %21 to i64
  %23 = getelementptr inbounds nuw i32, ptr %15, i64 %22
  %24 = load i32, ptr %23, align 4, !tbaa !9
  %25 = load ptr, ptr %5, align 8, !tbaa !4
  %26 = load i32, ptr %9, align 4, !tbaa !9
  %27 = shl i32 %26, 1
  %28 = add nsw i32 %27, 1
  %29 = sext i32 %28 to i64
  %30 = getelementptr inbounds i8, ptr %25, i64 %29
  %31 = load i8, ptr %30, align 1, !tbaa !67
  %32 = zext i8 %31 to i32
  %33 = shl i32 %32, 24
  %34 = or i32 %24, %33
  %35 = load ptr, ptr %6, align 8, !tbaa !4
  %36 = load i32, ptr %9, align 4, !tbaa !9
  %37 = sext i32 %36 to i64
  %38 = getelementptr inbounds i32, ptr %35, i64 %37
  store i32 %34, ptr %38, align 4, !tbaa !9
  br label %39

39:                                               ; preds = %14
  %40 = load i32, ptr %9, align 4, !tbaa !9
  %41 = add nsw i32 %40, 1
  store i32 %41, ptr %9, align 4, !tbaa !9
  br label %10, !llvm.loop !318

42:                                               ; preds = %10
  call void @llvm.lifetime.end.p0(i64 4, ptr %9) #11
  ret void
}