; Function Attrs: nofree norecurse nosync nounwind memory(argmem: readwrite) uwtable
define internal void @gray8aToPacked32(ptr noundef readonly captures(none) %0, ptr noundef writeonly captures(none) %1, i32 noundef %2, ptr noundef readonly captures(none) %3) unnamed_addr #0 {
  %5 = icmp sgt i32 %2, 0
  br i1 %5, label %.lr.ph.preheader, label %._crit_edge

.lr.ph.preheader:                                 ; preds = %4
  %wide.trip.count = zext nneg i32 %2 to i64
  br label %.lr.ph

.lr.ph:                                           ; preds = %.lr.ph.preheader, %.lr.ph
  %indvars.iv = phi i64 [ 0, %.lr.ph.preheader ], [ %indvars.iv.next, %.lr.ph ]
  %indvars.iv.tr = trunc i64 %indvars.iv to i32
  %6 = shl i32 %indvars.iv.tr, 1
  %7 = sext i32 %6 to i64
  %8 = getelementptr inbounds i8, ptr %0, i64 %7
  %9 = load i8, ptr %8, align 1, !tbaa !61
  %10 = zext i8 %9 to i64
  %11 = getelementptr inbounds nuw i32, ptr %3, i64 %10
  %12 = load i32, ptr %11, align 4, !tbaa !48
  %13 = getelementptr i8, ptr %8, i64 1
  %14 = load i8, ptr %13, align 1, !tbaa !61
  %15 = zext i8 %14 to i32
  %16 = shl nuw i32 %15, 24
  %17 = or i32 %16, %12
  %18 = getelementptr inbounds nuw i32, ptr %1, i64 %indvars.iv
  store i32 %17, ptr %18, align 4, !tbaa !48
  %indvars.iv.next = add nuw nsw i64 %indvars.iv, 1
  %exitcond.not = icmp eq i64 %indvars.iv.next, %wide.trip.count
  br i1 %exitcond.not, label %._crit_edge, label %.lr.ph, !llvm.loop !310

._crit_edge:                                      ; preds = %.lr.ph, %4
  ret void
}